target datalayout = "e-m:e-p270:32:32-p271:32:32-p272:64:64-i64:64-i128:128-f80:128-n8:16:32:64-S128"
target triple = "x86_64-pc-linux-gnu"

; Function Attrs: nounwind uwtable
define i32 @cl_finish_hash(ptr noundef %0, ptr noundef %1) #0 {
  %3 = alloca i32, align 4
  %4 = alloca ptr, align 8
  %5 = alloca ptr, align 8
  %6 = alloca i32, align 4
  %7 = alloca i32, align 4
  store ptr %0, ptr %4, align 8, !tbaa !8
  store ptr %1, ptr %5, align 8, !tbaa !8
  call void @llvm.lifetime.start.p0(i64 4, ptr %6) #8
  store i32 0, ptr %6, align 4, !tbaa !13
  %8 = load ptr, ptr %4, align 8, !tbaa !8
  %9 = icmp ne ptr %8, null
  br i1 %9, label %10, label %13

10:                                               ; preds = %2
  %11 = load ptr, ptr %5, align 8, !tbaa !8
  %12 = icmp ne ptr %11, null
  br i1 %12, label %14, label %13

13:                                               ; preds = %10, %2
  store i32 -1, ptr %3, align 4
  store i32 1, ptr %7, align 4
  br label %23

14:                                               ; preds = %10
  %15 = load ptr, ptr %4, align 8, !tbaa !8
  %16 = load ptr, ptr %5, align 8, !tbaa !8
  %17 = call i32 @EVP_DigestFinal_ex(ptr noundef %15, ptr noundef %16, ptr noundef null)
  %18 = icmp ne i32 %17, 0
  br i1 %18, label %20, label %19

19:                                               ; preds = %14
  store i32 -1, ptr %6, align 4, !tbaa !13
  br label %20

20:                                               ; preds = %19, %14
  %21 = load ptr, ptr %4, align 8, !tbaa !8
  call void @EVP_MD_CTX_free(ptr noundef %21)
  %22 = load i32, ptr %6, align 4, !tbaa !13
  store i32 %22, ptr %3, align 4
  store i32 1, ptr %7, align 4
  br label %23

23:                                               ; preds = %20, %13
  call void @llvm.lifetime.end.p0(i64 4, ptr %6) #8
  %24 = load i32, ptr %3, align 4
  ret i32 %24
}