; Function Attrs: nounwind uwtable
define range(i32 -1, 1) i32 @cl_finish_hash(ptr noundef %0, ptr noundef %1) local_unnamed_addr #1 {
  %3 = icmp ne ptr %0, null
  %4 = icmp ne ptr %1, null
  %or.cond = and i1 %3, %4
  br i1 %or.cond, label %5, label %7

5:                                                ; preds = %2
  %6 = tail call i32 @EVP_DigestFinal_ex(ptr noundef nonnull %0, ptr noundef nonnull %1, ptr noundef null) #12
  %.not = icmp eq i32 %6, 0
  %spec.select = sext i1 %.not to i32
  tail call void @EVP_MD_CTX_free(ptr noundef nonnull %0) #12
  br label %7

7:                                                ; preds = %2, %5
  %.07 = phi i32 [ %spec.select, %5 ], [ -1, %2 ]
  ret i32 %.07
}